target datalayout = "e-m:e-p270:32:32-p271:32:32-p272:64:64-i64:64-i128:128-f80:128-n8:16:32:64-S128"
target triple = "x86_64-unknown-linux-gnu"

%struct.QObjectBase_ = type { i32, i64 }
%struct.QObject = type { %struct.QObjectBase_ }

@.str.1 = private unnamed_addr constant [37 x i8] c"../qemu/qapi/qobject-input-visitor.c\00", align 1
@__func__.qobject_input_get_object = private unnamed_addr constant [25 x i8] c"qobject_input_get_object\00", align 1
@.str.5 = private unnamed_addr constant [26 x i8] c"Parameter '%s' is missing\00", align 1
@.str.12 = private unnamed_addr constant [59 x i8] c"QTYPE_NONE < obj->base.type && obj->base.type < QTYPE__MAX\00", align 1
@.str.13 = private unnamed_addr constant [105 x i8] c"/home/dtcxzyw/WorkSpace/Projects/compilers/llvm-opt-benchmark/bench/qemu/qemu/include/qapi/qmp/qobject.h\00", align 1
@__PRETTY_FUNCTION__.qobject_type = private unnamed_addr constant [36 x i8] c"QType qobject_type(const QObject *)\00", align 1
@__func__.qobject_input_type_uint64 = private unnamed_addr constant [26 x i8] c"qobject_input_type_uint64\00", align 1
@.str.30 = private unnamed_addr constant [26 x i8] c"Parameter '%s' expects %s\00", align 1
@.str.31 = private unnamed_addr constant [7 x i8] c"uint64\00", align 1

; Function Attrs: nounwind sspstrong uwtable
define internal i32 @qobject_type(ptr noundef %obj) #0 {
entry:
  %obj.addr = alloca ptr, align 8
  store ptr %obj, ptr %obj.addr, align 8
  %0 = load ptr, ptr %obj.addr, align 8
  %base = getelementptr inbounds %struct.QObject, ptr %0, i32 0, i32 0
  %type = getelementptr inbounds %struct.QObjectBase_, ptr %base, i32 0, i32 0
  %1 = load i32, ptr %type, align 8
  %cmp = icmp ult i32 0, %1
  br i1 %cmp, label %land.lhs.true, label %if.else

land.lhs.true:                                    ; preds = %entry
  %2 = load ptr, ptr %obj.addr, align 8
  %base1 = getelementptr inbounds %struct.QObject, ptr %2, i32 0, i32 0
  %type2 = getelementptr inbounds %struct.QObjectBase_, ptr %base1, i32 0, i32 0
  %3 = load i32, ptr %type2, align 8
  %cmp3 = icmp ult i32 %3, 7
  br i1 %cmp3, label %if.then, label %if.else

if.then:                                          ; preds = %land.lhs.true
  br label %if.end

if.else:                                          ; preds = %land.lhs.true, %entry
  call void @__assert_fail(ptr noundef @.str.12, ptr noundef @.str.13, i32 noundef 126, ptr noundef @__PRETTY_FUNCTION__.qobject_type) #7
  unreachable

if.end:                                           ; preds = %if.then
  %4 = load ptr, ptr %obj.addr, align 8
  %base4 = getelementptr inbounds %struct.QObject, ptr %4, i32 0, i32 0
  %type5 = getelementptr inbounds %struct.QObjectBase_, ptr %base4, i32 0, i32 0
  %5 = load i32, ptr %type5, align 8
  ret i32 %5
}

; Function Attrs: nounwind sspstrong uwtable
define internal ptr @full_name(ptr noundef %qiv, ptr noundef %name) #0 {
entry:
  %qiv.addr = alloca ptr, align 8
  %name.addr = alloca ptr, align 8
  store ptr %qiv, ptr %qiv.addr, align 8
  store ptr %name, ptr %name.addr, align 8
  %0 = load ptr, ptr %qiv.addr, align 8
  %1 = load ptr, ptr %name.addr, align 8
  %call = call ptr @full_name_nth(ptr noundef %0, ptr noundef %1, i32 noundef 0)
  ret ptr %call
}

; Function Attrs: nounwind sspstrong uwtable
define internal ptr @qobject_check_type(ptr noundef %obj, i32 noundef %type) #0 {
entry:
  %retval = alloca ptr, align 8
  %obj.addr = alloca ptr, align 8
  %type.addr = alloca i32, align 4
  store ptr %obj, ptr %obj.addr, align 8
  store i32 %type, ptr %type.addr, align 4
  %0 = load ptr, ptr %obj.addr, align 8
  %tobool = icmp ne ptr %0, null
  br i1 %tobool, label %land.lhs.true, label %if.else

land.lhs.true:                                    ; preds = %entry
  %1 = load ptr, ptr %obj.addr, align 8
  %call = call i32 @qobject_type(ptr noundef %1)
  %2 = load i32, ptr %type.addr, align 4
  %cmp = icmp eq i32 %call, %2
  br i1 %cmp, label %if.then, label %if.else

if.then:                                          ; preds = %land.lhs.true
  %3 = load ptr, ptr %obj.addr, align 8
  store ptr %3, ptr %retval, align 8
  br label %return

if.else:                                          ; preds = %land.lhs.true, %entry
  store ptr null, ptr %retval, align 8
  br label %return

return:                                           ; preds = %if.else, %if.then
  %4 = load ptr, ptr %retval, align 8
  ret ptr %4
}

; Function Attrs: nounwind sspstrong uwtable
define internal ptr @qobject_input_get_object(ptr noundef %qiv, ptr noundef %name, i1 noundef zeroext %consume, ptr noundef %errp) #0 {
entry:
  %qiv.addr = alloca ptr, align 8
  %name.addr = alloca ptr, align 8
  %consume.addr = alloca i8, align 1
  %errp.addr = alloca ptr, align 8
  %obj = alloca ptr, align 8
  store ptr %qiv, ptr %qiv.addr, align 8
  store ptr %name, ptr %name.addr, align 8
  %frombool = zext i1 %consume to i8
  store i8 %frombool, ptr %consume.addr, align 1
  store ptr %errp, ptr %errp.addr, align 8
  %0 = load ptr, ptr %qiv.addr, align 8
  %1 = load ptr, ptr %name.addr, align 8
  %2 = load i8, ptr %consume.addr, align 1
  %tobool = trunc i8 %2 to i1
  %call = call ptr @qobject_input_try_get_object(ptr noundef %0, ptr noundef %1, i1 noundef zeroext %tobool)
  store ptr %call, ptr %obj, align 8
  %3 = load ptr, ptr %obj, align 8
  %tobool1 = icmp ne ptr %3, null
  br i1 %tobool1, label %if.end, label %if.then

if.then:                                          ; preds = %entry
  %4 = load ptr, ptr %errp.addr, align 8
  %5 = load ptr, ptr %qiv.addr, align 8
  %6 = load ptr, ptr %name.addr, align 8
  %call2 = call ptr @full_name(ptr noundef %5, ptr noundef %6)
  call void (ptr, ptr, i32, ptr, ptr, ...) @error_setg_internal(ptr noundef %4, ptr noundef @.str.1, i32 noundef 171, ptr noundef @__func__.qobject_input_get_object, ptr noundef @.str.5, ptr noundef %call2)
  br label %if.end

if.end:                                           ; preds = %if.then, %entry
  %7 = load ptr, ptr %obj, align 8
  ret ptr %7
}

; Function Attrs: nounwind sspstrong uwtable
define internal ptr @to_qiv(ptr noundef %v) #0 {
entry:
  %v.addr = alloca ptr, align 8
  %__mptr = alloca ptr, align 8
  %tmp = alloca ptr, align 8
  store ptr %v, ptr %v.addr, align 8
  %0 = load ptr, ptr %v.addr, align 8
  store ptr %0, ptr %__mptr, align 8
  %1 = load ptr, ptr %__mptr, align 8
  %add.ptr = getelementptr i8, ptr %1, i64 0
  store ptr %add.ptr, ptr %tmp, align 8
  %2 = load ptr, ptr %tmp, align 8
  ret ptr %2
}

; Function Attrs: nounwind sspstrong uwtable
define internal zeroext i1 @qobject_input_type_uint64(ptr noundef %v, ptr noundef %name, ptr noundef %obj, ptr noundef %errp) #0 {
entry:
  %retval = alloca i1, align 1
  %v.addr = alloca ptr, align 8
  %name.addr = alloca ptr, align 8
  %obj.addr = alloca ptr, align 8
  %errp.addr = alloca ptr, align 8
  %qiv = alloca ptr, align 8
  %qobj = alloca ptr, align 8
  %qnum = alloca ptr, align 8
  %val = alloca i64, align 8
  store ptr %v, ptr %v.addr, align 8
  store ptr %name, ptr %name.addr, align 8
  store ptr %obj, ptr %obj.addr, align 8
  store ptr %errp, ptr %errp.addr, align 8
  %0 = load ptr, ptr %v.addr, align 8
  %call = call ptr @to_qiv(ptr noundef %0)
  store ptr %call, ptr %qiv, align 8
  %1 = load ptr, ptr %qiv, align 8
  %2 = load ptr, ptr %name.addr, align 8
  %3 = load ptr, ptr %errp.addr, align 8
  %call1 = call ptr @qobject_input_get_object(ptr noundef %1, ptr noundef %2, i1 noundef zeroext true, ptr noundef %3)
  store ptr %call1, ptr %qobj, align 8
  %4 = load ptr, ptr %qobj, align 8
  %tobool = icmp ne ptr %4, null
  br i1 %tobool, label %if.end, label %if.then

if.then:                                          ; preds = %entry
  store i1 false, ptr %retval, align 1
  br label %return

if.end:                                           ; preds = %entry
  %5 = load ptr, ptr %qobj, align 8
  %call2 = call ptr @qobject_check_type(ptr noundef %5, i32 noundef 2)
  store ptr %call2, ptr %qnum, align 8
  %6 = load ptr, ptr %qnum, align 8
  %tobool3 = icmp ne ptr %6, null
  br i1 %tobool3, label %if.end5, label %if.then4

if.then4:                                         ; preds = %if.end
  br label %err

if.end5:                                          ; preds = %if.end
  %7 = load ptr, ptr %qnum, align 8
  %8 = load ptr, ptr %obj.addr, align 8
  %call6 = call zeroext i1 @qnum_get_try_uint(ptr noundef %7, ptr noundef %8)
  br i1 %call6, label %if.then7, label %if.end8

if.then7:                                         ; preds = %if.end5
  store i1 true, ptr %retval, align 1
  br label %return

if.end8:                                          ; preds = %if.end5
  %9 = load ptr, ptr %qnum, align 8
  %call9 = call zeroext i1 @qnum_get_try_int(ptr noundef %9, ptr noundef %val)
  br i1 %call9, label %if.then10, label %if.end11

if.then10:                                        ; preds = %if.end8
  %10 = load i64, ptr %val, align 8
  %11 = load ptr, ptr %obj.addr, align 8
  store i64 %10, ptr %11, align 8
  store i1 true, ptr %retval, align 1
  br label %return

if.end11:                                         ; preds = %if.end8
  br label %err

err:                                              ; preds = %if.end11, %if.then4
  %12 = load ptr, ptr %errp.addr, align 8
  %13 = load ptr, ptr %qiv, align 8
  %14 = load ptr, ptr %name.addr, align 8
  %call12 = call ptr @full_name(ptr noundef %13, ptr noundef %14)
  call void (ptr, ptr, i32, ptr, ptr, ...) @error_setg_internal(ptr noundef %12, ptr noundef @.str.1, i32 noundef 462, ptr noundef @__func__.qobject_input_type_uint64, ptr noundef @.str.30, ptr noundef %call12, ptr noundef @.str.31)
  store i1 false, ptr %retval, align 1
  br label %return

return:                                           ; preds = %err, %if.then10, %if.then7, %if.then
  %15 = load i1, ptr %retval, align 1
  ret i1 %15
}