; Function Attrs: nounwind sspstrong uwtable
define internal noundef zeroext i1 @qobject_input_type_uint64(ptr noundef captures(none) %v, ptr noundef %name, ptr noundef %obj, ptr noundef %errp) #0 {
entry:
  %val = alloca i64, align 8
  %call.i = tail call fastcc ptr @qobject_input_try_get_object(ptr noundef %v, ptr noundef %name, i1 noundef zeroext true)
  %tobool1.not.i = icmp eq ptr %call.i, null
  br i1 %tobool1.not.i, label %qobject_input_get_object.exit.thread, label %land.lhs.true.i

qobject_input_get_object.exit.thread:             ; preds = %entry
  %call.i.i = tail call fastcc ptr @full_name_nth(ptr noundef %v, ptr noundef %name, i32 noundef 0)
  tail call void (ptr, ptr, i32, ptr, ptr, ...) @error_setg_internal(ptr noundef %errp, ptr noundef nonnull @.str.1, i32 noundef 171, ptr noundef nonnull @__func__.qobject_input_get_object, ptr noundef nonnull @.str.5, ptr noundef %call.i.i) #8
  br label %return

land.lhs.true.i:                                  ; preds = %entry
  %obj.val.i = load i32, ptr %call.i, align 8
  %0 = add i32 %obj.val.i, -1
  %or.cond.i.i = icmp ult i32 %0, 6
  br i1 %or.cond.i.i, label %qobject_type.exit.i, label %if.else.i.i

if.else.i.i:                                      ; preds = %land.lhs.true.i
  tail call void @__assert_fail(ptr noundef nonnull @.str.12, ptr noundef nonnull @.str.13, i32 noundef 126, ptr noundef nonnull @__PRETTY_FUNCTION__.qobject_type) #7
  unreachable

qobject_type.exit.i:                              ; preds = %land.lhs.true.i
  %cmp.i = icmp eq i32 %obj.val.i, 2
  br i1 %cmp.i, label %if.end5, label %err

if.end5:                                          ; preds = %qobject_type.exit.i
  %call6 = tail call zeroext i1 @qnum_get_try_uint(ptr noundef nonnull %call.i, ptr noundef %obj) #8
  br i1 %call6, label %return, label %if.end8

if.end8:                                          ; preds = %if.end5
  %call9 = call zeroext i1 @qnum_get_try_int(ptr noundef nonnull %call.i, ptr noundef nonnull %val) #8
  br i1 %call9, label %if.then10, label %err

if.then10:                                        ; preds = %if.end8
  %1 = load i64, ptr %val, align 8
  store i64 %1, ptr %obj, align 8
  br label %return

err:                                              ; preds = %qobject_type.exit.i, %if.end8
  %call.i8 = call fastcc ptr @full_name_nth(ptr noundef %v, ptr noundef %name, i32 noundef 0)
  call void (ptr, ptr, i32, ptr, ptr, ...) @error_setg_internal(ptr noundef %errp, ptr noundef nonnull @.str.1, i32 noundef 462, ptr noundef nonnull @__func__.qobject_input_type_uint64, ptr noundef nonnull @.str.30, ptr noundef %call.i8, ptr noundef nonnull @.str.31) #8
  br label %return

return:                                           ; preds = %qobject_input_get_object.exit.thread, %if.end5, %err, %if.then10
  %retval.0 = phi i1 [ true, %if.then10 ], [ false, %err ], [ true, %if.end5 ], [ false, %qobject_input_get_object.exit.thread ]
  ret i1 %retval.0
}